target datalayout = "e-m:e-p270:32:32-p271:32:32-p272:64:64-i64:64-i128:128-f80:128-n8:16:32:64-S128"
target triple = "x86_64-pc-linux-gnu"

%"class.Imath_2_5::Vec2.6" = type { float, float }
%"class.cv::ExrDecoder" = type { %"class.cv::BaseImageDecoder", ptr, i32, %"class.Imath_2_5::Box", i8, ptr, ptr, ptr, ptr, %"struct.Imf_2_5::Chromaticities", i32, i8, i8, i8, i8 }
%"class.cv::BaseImageDecoder" = type { ptr, i32, i32, i32, i32, %"class.std::__cxx11::basic_string", %"class.std::__cxx11::basic_string", %"class.cv::Mat", i8, i8, [6 x i8], %"class.cv::ExifReader" }
%"class.std::__cxx11::basic_string" = type { %"struct.std::__cxx11::basic_string<char>::_Alloc_hider", i64, %union.anon }
%"struct.std::__cxx11::basic_string<char>::_Alloc_hider" = type { ptr }
%union.anon = type { i64, [8 x i8] }
%"class.cv::Mat" = type { i32, i32, i32, i32, ptr, ptr, ptr, ptr, ptr, ptr, %"struct.cv::MatSize", %"struct.cv::MatStep" }
%"struct.cv::MatSize" = type { ptr }
%"struct.cv::MatStep" = type { ptr, [2 x i64] }
%"class.cv::ExifReader" = type <{ %"class.std::vector", %"class.std::map", i32, [4 x i8] }>
%"class.std::vector" = type { %"struct.std::_Vector_base" }
%"struct.std::_Vector_base" = type { %"struct.std::_Vector_base<unsigned char, std::allocator<unsigned char>>::_Vector_impl" }
%"struct.std::_Vector_base<unsigned char, std::allocator<unsigned char>>::_Vector_impl" = type { %"struct.std::_Vector_base<unsigned char, std::allocator<unsigned char>>::_Vector_impl_data" }
%"struct.std::_Vector_base<unsigned char, std::allocator<unsigned char>>::_Vector_impl_data" = type { ptr, ptr, ptr }
%"class.std::map" = type { %"class.std::_Rb_tree" }
%"class.std::_Rb_tree" = type { %"struct.std::_Rb_tree<int, std::pair<const int, cv::ExifEntry_t>, std::_Select1st<std::pair<const int, cv::ExifEntry_t>>, std::less<int>>::_Rb_tree_impl" }
%"struct.std::_Rb_tree<int, std::pair<const int, cv::ExifEntry_t>, std::_Select1st<std::pair<const int, cv::ExifEntry_t>>, std::less<int>>::_Rb_tree_impl" = type { %"struct.std::_Rb_tree_key_compare", %"struct.std::_Rb_tree_header" }
%"struct.std::_Rb_tree_key_compare" = type { %"struct.std::less" }
%"struct.std::less" = type { i8 }
%"struct.std::_Rb_tree_header" = type { %"struct.std::_Rb_tree_node_base", i64 }
%"struct.std::_Rb_tree_node_base" = type { i32, ptr, ptr, ptr }
%"class.Imath_2_5::Box" = type { %"class.Imath_2_5::Vec2", %"class.Imath_2_5::Vec2" }
%"class.Imath_2_5::Vec2" = type { i32, i32 }
%"struct.Imf_2_5::Chromaticities" = type { %"class.Imath_2_5::Vec2.6", %"class.Imath_2_5::Vec2.6", %"class.Imath_2_5::Vec2.6", %"class.Imath_2_5::Vec2.6" }

@_ZTVN2cv16BaseImageDecoderE = external unnamed_addr constant { [15 x ptr] }, align 8

; Function Attrs: noreturn nounwind uwtable
define linkonce_odr hidden void @__clang_call_terminate(ptr noundef %0) #6 comdat {
  %2 = call ptr @__cxa_begin_catch(ptr %0) #3
  call void @_ZSt9terminatev() #16
  unreachable
}

; Function Attrs: mustprogress nounwind uwtable
define linkonce_odr hidden void @_ZN2cv16BaseImageDecoderD2Ev(ptr noundef nonnull align 8 dereferenceable(272) %0) unnamed_addr #5 comdat align 2 {
  %2 = alloca ptr, align 8
  store ptr %0, ptr %2, align 8
  %3 = load ptr, ptr %2, align 8
  store ptr getelementptr inbounds inrange(-16, 104) ({ [15 x ptr] }, ptr @_ZTVN2cv16BaseImageDecoderE, i32 0, i32 0, i32 2), ptr %3, align 8
  %4 = getelementptr inbounds %"class.cv::BaseImageDecoder", ptr %3, i32 0, i32 11
  call void @_ZN2cv10ExifReaderD1Ev(ptr noundef nonnull align 8 dereferenceable(76) %4) #3
  %5 = getelementptr inbounds %"class.cv::BaseImageDecoder", ptr %3, i32 0, i32 7
  call void @_ZN2cv3MatD1Ev(ptr noundef nonnull align 8 dereferenceable(96) %5) #3
  %6 = getelementptr inbounds %"class.cv::BaseImageDecoder", ptr %3, i32 0, i32 6
  call void @_ZNSt7__cxx1112basic_stringIcSt11char_traitsIcESaIcEED1Ev(ptr noundef nonnull align 8 dereferenceable(32) %6) #3
  %7 = getelementptr inbounds %"class.cv::BaseImageDecoder", ptr %3, i32 0, i32 5
  call void @_ZNSt7__cxx1112basic_stringIcSt11char_traitsIcESaIcEED1Ev(ptr noundef nonnull align 8 dereferenceable(32) %7) #3
  ret void
}

; Function Attrs: mustprogress nounwind uwtable
define hidden void @_ZN2cv10ExrDecoder5closeEv(ptr noundef nonnull align 8 dereferenceable(376) %0) #5 align 2 {
  %2 = alloca ptr, align 8
  store ptr %0, ptr %2, align 8
  %3 = load ptr, ptr %2, align 8
  %4 = getelementptr inbounds %"class.cv::ExrDecoder", ptr %3, i32 0, i32 1
  %5 = load ptr, ptr %4, align 8
  %6 = icmp ne ptr %5, null
  br i1 %6, label %7, label %17

7:                                                ; preds = %1
  %8 = getelementptr inbounds %"class.cv::ExrDecoder", ptr %3, i32 0, i32 1
  %9 = load ptr, ptr %8, align 8
  %10 = icmp eq ptr %9, null
  br i1 %10, label %15, label %11

11:                                               ; preds = %7
  %12 = load ptr, ptr %9, align 8
  %13 = getelementptr inbounds ptr, ptr %12, i64 1
  %14 = load ptr, ptr %13, align 8
  call void %14(ptr noundef nonnull align 8 dereferenceable(16) %9) #3
  br label %15

15:                                               ; preds = %11, %7
  %16 = getelementptr inbounds %"class.cv::ExrDecoder", ptr %3, i32 0, i32 1
  store ptr null, ptr %16, align 8
  br label %17

17:                                               ; preds = %15, %1
  ret void
}

; Function Attrs: mustprogress nounwind uwtable
define hidden void @_ZN2cv10ExrDecoderD2Ev(ptr noundef nonnull align 8 dereferenceable(376) %0) unnamed_addr #5 align 2 personality ptr @__gxx_personality_v0 {
  %2 = alloca ptr, align 8
  store ptr %0, ptr %2, align 8
  %3 = load ptr, ptr %2, align 8
  invoke void @_ZN2cv10ExrDecoder5closeEv(ptr noundef nonnull align 8 dereferenceable(376) %3)
          to label %4 unwind label %5

4:                                                ; preds = %1
  call void @_ZN2cv16BaseImageDecoderD2Ev(ptr noundef nonnull align 8 dereferenceable(272) %3) #3
  ret void

5:                                                ; preds = %1
  %6 = landingpad { ptr, i32 }
          catch ptr null
  %7 = extractvalue { ptr, i32 } %6, 0
  call void @__clang_call_terminate(ptr %7) #16
  unreachable
}