; Function Attrs: mustprogress nounwind uwtable
define hidden void @_ZN2cv10ExrDecoderD2Ev(ptr noundef nonnull align 8 dereferenceable(376) %0) unnamed_addr #4 align 2 personality ptr @__gxx_personality_v0 {
  %2 = getelementptr inbounds i8, ptr %0, i64 272
  %3 = load ptr, ptr %2, align 8
  %.not.i = icmp eq ptr %3, null
  br i1 %.not.i, label %_ZN2cv10ExrDecoder5closeEv.exit, label %4

4:                                                ; preds = %1
  %5 = load ptr, ptr %3, align 8
  %6 = getelementptr inbounds i8, ptr %5, i64 8
  %7 = load ptr, ptr %6, align 8
  tail call void %7(ptr noundef nonnull align 8 dereferenceable(16) %3) #23
  store ptr null, ptr %2, align 8
  br label %_ZN2cv10ExrDecoder5closeEv.exit

_ZN2cv10ExrDecoder5closeEv.exit:                  ; preds = %1, %4
  store ptr getelementptr inbounds inrange(-16, 104) (i8, ptr @_ZTVN2cv16BaseImageDecoderE, i64 16), ptr %0, align 8
  %8 = getelementptr inbounds i8, ptr %0, i64 192
  tail call void @_ZN2cv10ExifReaderD1Ev(ptr noundef nonnull align 8 dereferenceable(76) %8) #23
  %9 = getelementptr inbounds i8, ptr %0, i64 88
  tail call void @_ZN2cv3MatD1Ev(ptr noundef nonnull align 8 dereferenceable(96) %9) #23
  %10 = getelementptr inbounds i8, ptr %0, i64 56
  tail call void @_ZNSt7__cxx1112basic_stringIcSt11char_traitsIcESaIcEED1Ev(ptr noundef nonnull align 8 dereferenceable(32) %10) #23
  %11 = getelementptr inbounds i8, ptr %0, i64 24
  tail call void @_ZNSt7__cxx1112basic_stringIcSt11char_traitsIcESaIcEED1Ev(ptr noundef nonnull align 8 dereferenceable(32) %11) #23
  ret void
}